; Function Attrs: mustprogress nofree norecurse nosync nounwind ssp willreturn memory(argmem: readwrite) uwtable
define void @_ZNK6open3d7utility5Timer16GetDurationInHMSEv(ptr dead_on_unwind noalias writable writeonly sret(%"class.std::tuple") align 8 captures(none) initializes((0, 16)) %0, ptr noundef nonnull readonly align 8 captures(none) dereferenceable(16) %1) local_unnamed_addr #7 align 2 personality ptr @__gxx_personality_v0 {
  %3 = getelementptr inbounds nuw i8, ptr %1, i64 8
  %4 = load double, ptr %3, align 8, !tbaa !9
  %5 = load double, ptr %1, align 8, !tbaa !4
  %6 = fsub double %4, %5
  %7 = fdiv double %6, 1.000000e+03
  %8 = fdiv double %7, 3.600000e+03
  %9 = fptosi double %8 to i32
  %10 = sitofp i32 %9 to double
  %11 = fneg double %10
  %12 = tail call double @llvm.fmuladd.f64(double %11, double 3.600000e+03, double %7)
  %13 = fdiv double %12, 6.000000e+01
  %14 = fptosi double %13 to i32
  %15 = sitofp i32 %14 to double
  %16 = fneg double %15
  %17 = tail call double @llvm.fmuladd.f64(double %16, double 6.000000e+01, double %12)
  store double %17, ptr %0, align 8, !tbaa !10, !alias.scope !12
  %18 = getelementptr inbounds nuw i8, ptr %0, i64 8
  store i32 %14, ptr %18, align 8, !tbaa !15, !alias.scope !12
  %19 = getelementptr inbounds nuw i8, ptr %0, i64 12
  store i32 %9, ptr %19, align 4, !tbaa !18, !alias.scope !12
  ret void
}